(dp1
S'output'
p2
S"<type 'exceptions.NameError'> name 'exp_id' is not defined"
p3
sS'layer'
p4
S'/usr/local/web2py/applications/ZTree/views/experiments/results.html'
p5
sS'code'
p6
S'left_sidebar_enabled,right_sidebar_enabled=False,(\'message\' in globals())\nresponse.write(\'\\n\', escape=False)\nresponse.write(\'<!DOCTYPE html PUBLIC "-//W3C//DTD XHTML 1.0 Strict//EN" "http://www.w3.org/TR/xhtml1/DTD/xhtml1-strict.dtd">\\n<!--\\n\\nDesign by Free CSS Templates\\nhttp://www.freecsstemplates.org\\nReleased for free under a Creative Commons Attribution 2.5 License\\n\\nTitle      : Stickybud\\nVersion    : 1.0\\nReleased   : 20070701\\nDescription: A two-column, fixed-width template. This template features a splash page that can be changed easily.\\n\\n-->\\n<html xmlns="http://www.w3.org/1999/xhtml">\\n <head>\\n  <title>\\n   \', escape=False)\nresponse.write(response.title or request.application)\nresponse.write(\'\\n  </title>\\n  \', escape=False)\nresponse.files.append(URL(\'static\',\'css/default.css\'))\nresponse.write(\'\\n  \', escape=False)\nresponse.files.append(URL(\'static\',\'plugin_layouts/superfish.js\'))\nresponse.write(\'\\n  \', escape=False)\nresponse.write(\'<script type="text/javascript"><!--\\n    // These variables are used by the web2py_ajax_init function in web2py_ajax.js (which is loaded below).\\n    var w2p_ajax_confirm_message = "\', escape=False)\nresponse.write(T(\'Are you sure you want to delete this object?\'))\nresponse.write(\'";\\n    var w2p_ajax_disable_with_message = "\', escape=False)\nresponse.write(T(\'Working...\'))\nresponse.write(\'";\\n    var w2p_ajax_date_format = "\', escape=False)\nresponse.write(T(\'%Y-%m-%d\'))\nresponse.write(\'";\\n    var w2p_ajax_datetime_format = "\', escape=False)\nresponse.write(T(\'%Y-%m-%d %H:%M:%S\'))\nresponse.write(\'";\\n    var ajax_error_500 = \\\'\', escape=False)\nresponse.write(T.M(\'An error occured, please [[reload %s]] the page\') % URL(args=request.args, vars=request.get_vars))\nresponse.write("\'\\n    //--></script>\\n", escape=False)\nresponse.files.insert(0,URL(\'static\',\'js/jquery.js\'))\nresponse.files.insert(1,URL(\'static\',\'css/calendar.css\'))\nresponse.files.insert(2,URL(\'static\',\'js/calendar.js\'))\nresponse.files.insert(3,URL(\'static\',\'js/web2py.js\'))\nresponse.include_meta()\nresponse.include_files()\nresponse.write(\'\\n\', escape=False)\nresponse.write(\'\\n  <style>\\nul.web2py-menu-vertical { width: 150px; position: relative; top:1em; left:1em;  z-index:30; border:0; margin:0; padding: 0; list-style: none; text-decoration: none;}\\nul.web2py-menu-vertical li { margin:0; padding:0; border:0; width: 150px; background: black; text-align:left;}\\nul.web2py-menu-vertical li a { margin:0; padding: 1px 3px 1px 3px; border:0; width: 144px; color: white; font-size:12px;}\\ndiv.flash { position: fixed; float: right; padding: 10px; top: 10px; right: 30px; opacity: 0.75; margin: 10px 10px 10px 10px; text-align: center; clear: both; color: #fff; font-size: 11pt; text-align: center; vertical-align: middle; cursor: pointer; background: black; border: 2px solid #fff; -moz-border-radius: 5px; -webkit-border-radius: 5px; z-index: 2; }\\ndiv.error { background-color: red; color: white; padding: 3px; }\\n.auth_navbar { text-align:right; z-index:20; position: absolute; top: 2px; right:30px; border:0; padding:0 }\\n  </style>\\n </head>\\n <body>\\n  <!-- start header -->\\n  \', escape=False)\ntry:\n    response.write(auth.navbar(action=URL(\'default\',\'user\')))\nexcept:pass\nresponse.write(\'\\n\\n  <div id="header">\\n   <div id="logo">\\n    <h1>\\n     \', escape=False)\nresponse.write(response.title or request.application)\nresponse.write(\'\\n    </h1>\\n    <h2>\\n     \', escape=False)\nresponse.write(response.subtitle)\nresponse.write(\'\\n    </h2>\\n   </div>\\n   <div id="search">\\n    <form id="searchform" method="get" action="">\\n     <fieldset>\\n      <legend>\\n       Search\\n      </legend>\\n      <input id="searchinput" type="text" name="searchinput" value="" />\\n      <input id="searchsubmit" type="submit" value="Search" />\\n     </fieldset>\\n    </form>\\n   </div>\\n  </div>\\n  <div id="menu">\\n   \', escape=False)\nresponse.write(MENU(response.menu,_class=\'web2py-menu\'))\nresponse.write(\'\\n    <script>\\n      jQuery(document).ready(function(){jQuery(\\\'ul.web2py-menu\\\').superfish({delay:400});});\\n    </script>\\n  </div>\\n  <hr />\\n  <div id="page">\\n       <div class="flash">\', escape=False)\nresponse.write(response.flash or \'\')\nresponse.write(\'</div>\\n\\n<div id="splash" class="twocols">\\n    <div class="col1">\\n     <h2 class="title">\\n     Experiments data \\n     </h2>\\nNumber,   Title<br>\\n\', escape=False)\nfor experiment in experiments:\n    response.write(\'\\n<a href="\', escape=False)\n    response.write(URL(c="experiments",f="results",vars=dict(experiment_id=experiment.id,name="Results")))\n    response.write(\'">\', escape=False)\n    response.write(experiment.id)\n    response.write(\'. \', escape=False)\n    response.write(experiment.title)\n    response.write(\'</a><br>\\n\', escape=False)\n    pass\nresponse.write(\'\\n\\t</div>\\n    <div class="col2">\\n     <h2 class="title">\\n     Experimental Setups\\n</h2>\\n     <ul class="list">\\n      <li>\\n       <a href="#">\\n       Coin Effort\\n</a>\\n      </li>\\n      <li>\\n       <a href="#">\\n       Hare and Stag\\n</a>\\n      </li>\\n      <li>\\n       <a href="#">\\n       Test\\n</a>\\n      </li>\\n     </ul>\\n    </div>\\n    <div style="clear: both;">\\n     &nbsp;\\n</div>\\n     <div id="content">\\n    \', escape=False)\nresponse.write(\'\\n<h2>Experiment Title: \', escape=False)\nresponse.write(exp.title)\nresponse.write(\'</h2>\\nId: \', escape=False)\nresponse.write(exp.id)\nresponse.write(\'   &#09; Rounds: \', escape=False)\nresponse.write(exp.rounds)\nresponse.write(\' &#09; Type: \', escape=False)\nresponse.write(exp.typeExperiment)\nresponse.write(\'\\n<p></p>\\n<h2>Experiment Setup Parameters</h2>\\n\', escape=False)\nfor parameter in parameters:\n    response.write(\'\\n<br>\\n\', escape=False)\n    response.write(parameter.name)\n    response.write(\': \', escape=False)\n    response.write(parameter.valueString)\n    response.write(\' &#09;\\n\', escape=False)\n    pass\nresponse.write(\'\\n<br>\\n<h3>Stages</h3>\\n<table style="width: 600px; border: 1px solid black;">\\n<tr style="background-color: #99CC33; color: black;">\\n<td>Stage Number</td><td>Type</td><td>Message</td>\\n\', escape=False)\nfor stage in stages:\n    response.write(\'\\n<tr><td>\', escape=False)\n    response.write(stage.stage_number)\n    response.write(\'</td><td>\', escape=False)\n    response.write(stage.type_stage)\n    response.write(\'</td><td>\', escape=False)\n    response.write(stage.message)\n    response.write(\'</td>\\n\', escape=False)\n    pass\nresponse.write(\'\\n</table>\\n</tr>\\n<a href=\', escape=False)\nURL(f="setup_stages",vars={\'experiment_id\':exp_id})\nresponse.write(\'>Add Stage</a>\\n<h2>Results Table</h2>\\n<table style="width: 600px; border: 1px solid black;">\\n<tr style="background-color: #99CC33; color: black;">\\n\\n<td>Exp ID</td><td>Stage</td><td>Round</td><td>Participant</td><td>Value</td></tr>\\n\', escape=False)\nfor res in results:\n    response.write(\'\\n<tr><td>\', escape=False)\n    response.write(res.experiment_id)\n    response.write(\'</td><td>\', escape=False)\n    response.write(res.stage_id)\n    response.write(\'</td><td>\', escape=False)\n    response.write(res.round_id)\n    response.write(\'</td><td>\', escape=False)\n    response.write(res.participant_id)\n    response.write(\'</td><td>\', escape=False)\n    response.write(res.valueString)\n    response.write(\'</td></tr>\\n\', escape=False)\n    pass\nresponse.write(\'\\n</table>\\n<a target="_blank" href="\', escape=False)\nresponse.write(URL(c="experiments",f="exportCSV",args="ExperimentResults."+str(exp.id)+".csv"))\nresponse.write(\'">Export results as csv</a>\\n\\n<div id="rightContent">\\n\\n\', escape=False)\nif \'message\' in globals():\n    response.write(\'\\n<h3>\', escape=False)\n    response.write(message)\n    response.write(\'</h3>\\n\', escape=False)\n    pass\nresponse.write(\'\\n</div>\\n\', escape=False)\nresponse.write(\'\\n</div>\\n   </div>\\n  </div>\\n  <hr />\\n  <div id="footer">\\n   <p id="legal">\\n    Copyright &copy; 2007 Stickybud. All Rights Reserved | Designed by\\n    <a href="http://www.freecsstemplates.org/">\\n     Free CSS Templates\\n    </a>\\n   </p>\\n   <p id="links">\\n    <a href="#">\\n     Privacy Policy\\n    </a>\\n    |\\n    <a href="#">\\n     Terms of Use\\n    </a>\\n    |\\n    <a href="http://validator.w3.org/check/referer" title="This page validates as XHTML 1.0 Transitional">\\n     <abbr title="eXtensible HyperText Markup Language">\\n      XHTML\\n     </abbr>\\n    </a>\\n    |\\n    <a href="http://jigsaw.w3.org/css-validator/check/referer" title="This page validates as CSS">\\n     <abbr title="Cascading Style Sheets">\\n      CSS\\n     </abbr>\\n    </a>\\n   </p>\\n  </div>\\n </body>\\n</html>\\n\', escape=False)'
p7
sS'snapshot'
p8
(dp9
sS'traceback'
p10
S'Traceback (most recent call last):\n  File "/usr/local/web2py/gluon/restricted.py", line 224, in restricted\n    exec ccode in environment\n  File "/usr/local/web2py/applications/ZTree/views/experiments/results.html", line 78, in <module>\nNameError: name \'exp_id\' is not defined\n'
p11
s.